; Function Attrs: mustprogress nofree norecurse nosync nounwind willreturn memory(none) uwtable
define range(i64 3, 536870915) i64 @FSE_NCountWriteBound(i32 noundef %0, i32 noundef %1) local_unnamed_addr #1 {
  %3 = add i32 %0, 1
  %4 = mul i32 %3, %1
  %5 = add i32 %4, 6
  %6 = lshr i32 %5, 3
  %7 = add nuw nsw i32 %6, 3
  %.not = icmp eq i32 %0, 0
  %narrow = select i1 %.not, i32 512, i32 %7
  %8 = zext nneg i32 %narrow to i64
  ret i64 %8
}